target datalayout = "e-m:e-p270:32:32-p271:32:32-p272:64:64-i64:64-i128:128-f80:128-n8:16:32:64-S128"
target triple = "x86_64-pc-linux-gnu"

%struct.METHOD = type { ptr, ptr, ptr }
%struct.QUERY = type { ptr, ptr, %struct.METHOD, [1 x i8] }

; Function Attrs: nounwind uwtable
define internal i32 @query_cmp(ptr noundef %0, ptr noundef %1) #0 {
  %3 = alloca ptr, align 8
  %4 = alloca ptr, align 8
  %5 = alloca i32, align 4
  store ptr %0, ptr %3, align 8, !tbaa !3
  store ptr %1, ptr %4, align 8, !tbaa !3
  call void @llvm.lifetime.start.p0(i64 4, ptr %5) #7
  %6 = load ptr, ptr %3, align 8, !tbaa !3
  %7 = getelementptr inbounds nuw %struct.QUERY, ptr %6, i32 0, i32 1
  %8 = load ptr, ptr %7, align 8, !tbaa !50
  %9 = load ptr, ptr %4, align 8, !tbaa !3
  %10 = getelementptr inbounds nuw %struct.QUERY, ptr %9, i32 0, i32 1
  %11 = load ptr, ptr %10, align 8, !tbaa !50
  %12 = call i32 @strcmp(ptr noundef %8, ptr noundef %11) #8
  store i32 %12, ptr %5, align 4, !tbaa !15
  %13 = load i32, ptr %5, align 4, !tbaa !15
  %14 = icmp eq i32 %13, 0
  br i1 %14, label %15, label %45

15:                                               ; preds = %2
  %16 = load ptr, ptr %3, align 8, !tbaa !3
  %17 = getelementptr inbounds nuw %struct.QUERY, ptr %16, i32 0, i32 0
  %18 = load ptr, ptr %17, align 8, !tbaa !52
  %19 = icmp ne ptr %18, null
  br i1 %19, label %20, label %45

20:                                               ; preds = %15
  %21 = load ptr, ptr %4, align 8, !tbaa !3
  %22 = getelementptr inbounds nuw %struct.QUERY, ptr %21, i32 0, i32 0
  %23 = load ptr, ptr %22, align 8, !tbaa !52
  %24 = icmp ne ptr %23, null
  br i1 %24, label %25, label %45

25:                                               ; preds = %20
  %26 = load ptr, ptr %4, align 8, !tbaa !3
  %27 = getelementptr inbounds nuw %struct.QUERY, ptr %26, i32 0, i32 0
  %28 = load ptr, ptr %27, align 8, !tbaa !52
  %29 = load ptr, ptr %3, align 8, !tbaa !3
  %30 = getelementptr inbounds nuw %struct.QUERY, ptr %29, i32 0, i32 0
  %31 = load ptr, ptr %30, align 8, !tbaa !52
  %32 = icmp ugt ptr %28, %31
  br i1 %32, label %33, label %34

33:                                               ; preds = %25
  br label %43

34:                                               ; preds = %25
  %35 = load ptr, ptr %4, align 8, !tbaa !3
  %36 = getelementptr inbounds nuw %struct.QUERY, ptr %35, i32 0, i32 0
  %37 = load ptr, ptr %36, align 8, !tbaa !52
  %38 = load ptr, ptr %3, align 8, !tbaa !3
  %39 = getelementptr inbounds nuw %struct.QUERY, ptr %38, i32 0, i32 0
  %40 = load ptr, ptr %39, align 8, !tbaa !52
  %41 = icmp ult ptr %37, %40
  %42 = select i1 %41, i32 -1, i32 0
  br label %43

43:                                               ; preds = %34, %33
  %44 = phi i32 [ 1, %33 ], [ %42, %34 ]
  store i32 %44, ptr %5, align 4, !tbaa !15
  br label %45

45:                                               ; preds = %43, %20, %15, %2
  %46 = load i32, ptr %5, align 4, !tbaa !15
  call void @llvm.lifetime.end.p0(i64 4, ptr %5) #7
  ret i32 %46
}