; Function Attrs: mustprogress nofree nounwind willreturn memory(read, inaccessiblemem: none) uwtable
define internal i32 @query_cmp(ptr noundef readonly captures(none) %0, ptr noundef readonly captures(none) %1) #4 {
  %3 = getelementptr inbounds nuw i8, ptr %0, i64 8
  %4 = load ptr, ptr %3, align 8, !tbaa !38
  %5 = getelementptr inbounds nuw i8, ptr %1, i64 8
  %6 = load ptr, ptr %5, align 8, !tbaa !38
  %7 = tail call i32 @strcmp(ptr noundef nonnull dereferenceable(1) %4, ptr noundef nonnull dereferenceable(1) %6) #8
  %8 = icmp eq i32 %7, 0
  br i1 %8, label %9, label %18

9:                                                ; preds = %2
  %10 = load ptr, ptr %0, align 8, !tbaa !41
  %.not = icmp eq ptr %10, null
  br i1 %.not, label %18, label %11

11:                                               ; preds = %9
  %12 = load ptr, ptr %1, align 8, !tbaa !41
  %.not12 = icmp eq ptr %12, null
  br i1 %.not12, label %18, label %13

13:                                               ; preds = %11
  %14 = icmp ugt ptr %12, %10
  %15 = icmp ult ptr %12, %10
  %16 = sext i1 %15 to i32
  %17 = select i1 %14, i32 1, i32 %16
  br label %18

18:                                               ; preds = %13, %11, %9, %2
  %.0 = phi i32 [ %17, %13 ], [ 0, %11 ], [ 0, %9 ], [ %7, %2 ]
  ret i32 %.0
}